; Function Attrs: nounwind uwtable
define void @_ZTv0_n24_N12JSONIOPluginD0Ev(ptr noundef %0) unnamed_addr #12 align 2 {
  %2 = load ptr, ptr %0, align 8
  %3 = getelementptr inbounds i8, ptr %2, i64 -24
  %4 = load i64, ptr %3, align 8
  %5 = getelementptr inbounds i8, ptr %0, i64 %4
  tail call void @_ZN12JSONIOPluginD1Ev(ptr noundef nonnull align 8 dereferenceable(32) %5) #22
  tail call void @_ZdlPv(ptr noundef nonnull %5) #21
  ret void
}